; Function Attrs: mustprogress uwtable
define dso_local void @_ZN7testing10TestResult17AddTestPartResultERKNS_14TestPartResultE(ptr noundef nonnull align 8 dereferenceable(128) %0, ptr noundef nonnull align 8 dereferenceable(112) %1) local_unnamed_addr #3 align 2 {
  %3 = getelementptr inbounds nuw i8, ptr %0, i64 64
  %4 = load ptr, ptr %3, align 8, !tbaa !549
  %5 = getelementptr inbounds nuw i8, ptr %0, i64 72
  %6 = load ptr, ptr %5, align 8, !tbaa !550
  %.not.i = icmp eq ptr %4, %6
  br i1 %.not.i, label %10, label %7

7:                                                ; preds = %2
  tail call void @_ZN7testing14TestPartResultC2ERKS0_(ptr noundef nonnull align 8 dereferenceable(112) %4, ptr noundef nonnull align 8 dereferenceable(112) %1)
  %8 = load ptr, ptr %3, align 8, !tbaa !549
  %9 = getelementptr inbounds nuw i8, ptr %8, i64 112
  store ptr %9, ptr %3, align 8, !tbaa !549
  br label %_ZNSt6vectorIN7testing14TestPartResultESaIS1_EE9push_backERKS1_.exit

10:                                               ; preds = %2
  %11 = getelementptr inbounds nuw i8, ptr %0, i64 56
  tail call void @_ZNSt6vectorIN7testing14TestPartResultESaIS1_EE17_M_realloc_insertIJRKS1_EEEvN9__gnu_cxx17__normal_iteratorIPS1_S3_EEDpOT_(ptr noundef nonnull align 8 dereferenceable(24) %11, ptr %4, ptr noundef nonnull align 8 dereferenceable(112) %1)
  br label %_ZNSt6vectorIN7testing14TestPartResultESaIS1_EE9push_backERKS1_.exit

_ZNSt6vectorIN7testing14TestPartResultESaIS1_EE9push_backERKS1_.exit: ; preds = %7, %10
  ret void
}